; Function Attrs: nounwind sspstrong uwtable
define dso_local void @tcg_gen_movcond_i64(i32 noundef %0, ptr noundef %1, ptr noundef %2, ptr noundef %3, ptr noundef %4, ptr noundef %5) local_unnamed_addr #2 {
  switch i32 %0, label %31 [
    i32 1, label %7
    i32 0, label %19
  ]

7:                                                ; preds = %6
  %8 = icmp eq ptr %1, %4
  br i1 %8, label %tcg_gen_mov_i64.exit, label %9

9:                                                ; preds = %7
  %10 = tail call align 8 ptr @llvm.threadlocal.address.p0(ptr align 8 @tcg_ctx)
  %11 = load ptr, ptr %10, align 8
  %12 = ptrtoint ptr %1 to i64
  %13 = getelementptr inbounds nuw i8, ptr %11, i64 %12
  %14 = ptrtoint ptr %13 to i64
  %15 = ptrtoint ptr %4 to i64
  %16 = getelementptr inbounds nuw i8, ptr %11, i64 %15
  %17 = ptrtoint ptr %16 to i64
  %18 = tail call ptr @tcg_gen_op2(i32 noundef 63, i32 noundef 1, i64 noundef %14, i64 noundef %17)
  br label %tcg_gen_mov_i64.exit

19:                                               ; preds = %6
  %20 = icmp eq ptr %1, %5
  br i1 %20, label %tcg_gen_mov_i64.exit, label %21

21:                                               ; preds = %19
  %22 = tail call align 8 ptr @llvm.threadlocal.address.p0(ptr align 8 @tcg_ctx)
  %23 = load ptr, ptr %22, align 8
  %24 = ptrtoint ptr %1 to i64
  %25 = getelementptr inbounds nuw i8, ptr %23, i64 %24
  %26 = ptrtoint ptr %25 to i64
  %27 = ptrtoint ptr %5 to i64
  %28 = getelementptr inbounds nuw i8, ptr %23, i64 %27
  %29 = ptrtoint ptr %28 to i64
  %30 = tail call ptr @tcg_gen_op2(i32 noundef 63, i32 noundef 1, i64 noundef %26, i64 noundef %29)
  br label %tcg_gen_mov_i64.exit

31:                                               ; preds = %6
  %32 = zext i32 %0 to i64
  %33 = tail call align 8 ptr @llvm.threadlocal.address.p0(ptr align 8 @tcg_ctx)
  %34 = load ptr, ptr %33, align 8
  %35 = ptrtoint ptr %1 to i64
  %36 = getelementptr inbounds nuw i8, ptr %34, i64 %35
  %37 = ptrtoint ptr %36 to i64
  %38 = ptrtoint ptr %2 to i64
  %39 = getelementptr inbounds nuw i8, ptr %34, i64 %38
  %40 = ptrtoint ptr %39 to i64
  %41 = ptrtoint ptr %3 to i64
  %42 = getelementptr inbounds nuw i8, ptr %34, i64 %41
  %43 = ptrtoint ptr %42 to i64
  %44 = ptrtoint ptr %4 to i64
  %45 = getelementptr inbounds nuw i8, ptr %34, i64 %44
  %46 = ptrtoint ptr %45 to i64
  %47 = ptrtoint ptr %5 to i64
  %48 = getelementptr inbounds nuw i8, ptr %34, i64 %47
  %49 = ptrtoint ptr %48 to i64
  %50 = tail call ptr @tcg_gen_op6(i32 noundef 66, i32 noundef 1, i64 noundef %37, i64 noundef %40, i64 noundef %43, i64 noundef %46, i64 noundef %49, i64 noundef range(i64 2, 4294967296) %32)
  br label %tcg_gen_mov_i64.exit

tcg_gen_mov_i64.exit:                             ; preds = %21, %19, %9, %7, %31
  ret void
}